target datalayout = "e-m:e-p270:32:32-p271:32:32-p272:64:64-i64:64-i128:128-f80:128-n8:16:32:64-S128"
target triple = "x86_64-pc-linux-gnu"

%struct.AVCodecContext = type { ptr, i32, i32, ptr, i32, i32, ptr, ptr, ptr, i64, i32, i32, ptr, i32, %struct.AVRational, %struct.AVRational, %struct.AVRational, i32, i32, i32, i32, i32, %struct.AVRational, i32, i32, i32, i32, i32, i32, i32, i32, i32, i32, i32, ptr, ptr, i32, float, float, float, float, float, float, float, float, float, i32, i32, i32, i32, i32, i32, i32, i32, i32, i32, i32, i32, ptr, ptr, ptr, i32, i32, i32, i32, i32, i32, i32, i32, i32, i32, %struct.AVChannelLayout, i32, i32, i32, i32, i32, i32, i32, i32, ptr, i32, i32, i32, float, float, i32, i32, i32, i32, i32, ptr, i64, i64, float, float, i32, i32, ptr, ptr, i32, i32, i32, i32, i32, ptr, ptr, ptr, ptr, i32, i32, [8 x i64], i32, i32, i32, i32, i32, i32, i32, ptr, ptr, i32, i32, i32, i32, i32, i32, i32, i32, i32, i32, ptr, ptr, i32, i32, ptr, ptr, ptr, ptr, i32, i32, i64, i32, i32, i64, ptr, i64, ptr, i32, ptr, i32 }
%struct.AVRational = type { i32, i32 }
%struct.AVChannelLayout = type { i32, i32, %union.anon.0, ptr }
%union.anon.0 = type { i64 }
%struct.CFHDContext = type { ptr, [2088 x %struct.CFHD_RL_VLC_ELEM], [4572 x %struct.CFHD_RL_VLC_ELEM], [2 x [256 x i32]], i32, i32, i32, i32, i32, i32, i32, i32, i32, i32, i32, i32, i32, i32, i32, i32, i32, i32, i32, i8, i16, i32, i32, i32, i32, i32, [8 x i8], [4 x %struct.Plane], %struct.Peak, %struct.CFHDDSPContext }
%struct.CFHD_RL_VLC_ELEM = type { i16, i8, i16 }
%struct.Plane = type { i32, i32, i64, ptr, ptr, i32, [17 x ptr], [10 x ptr], [6 x [4 x %struct.SubBand]] }
%struct.SubBand = type { i64, i32, i32, i32, i32, i8 }
%struct.Peak = type { i32, i32, %struct.GetByteContext }
%struct.GetByteContext = type { ptr, ptr, ptr }
%struct.CFHDDSPContext = type { ptr, ptr, ptr }

; Function Attrs: cold nounwind optsize uwtable
define internal i32 @cfhd_init(ptr noundef %0) #1 {
  %2 = alloca ptr, align 8
  %3 = alloca ptr, align 8
  %4 = alloca i32, align 4
  %5 = alloca i32, align 4
  %6 = alloca i32, align 4
  store ptr %0, ptr %2, align 8, !tbaa !4
  call void @llvm.lifetime.start.p0(i64 8, ptr %3) #11
  %7 = load ptr, ptr %2, align 8, !tbaa !4
  %8 = getelementptr inbounds nuw %struct.AVCodecContext, ptr %7, i32 0, i32 6
  %9 = load ptr, ptr %8, align 8, !tbaa !9
  store ptr %9, ptr %3, align 8, !tbaa !29
  %10 = load ptr, ptr %2, align 8, !tbaa !4
  %11 = load ptr, ptr %3, align 8, !tbaa !29
  %12 = getelementptr inbounds nuw %struct.CFHDContext, ptr %11, i32 0, i32 0
  store ptr %10, ptr %12, align 8, !tbaa !52
  call void @llvm.lifetime.start.p0(i64 4, ptr %4) #11
  store i32 0, ptr %4, align 4, !tbaa !49
  br label %13

13:                                               ; preds = %46, %1
  %14 = load i32, ptr %4, align 4, !tbaa !49
  %15 = icmp slt i32 %14, 64
  br i1 %15, label %17, label %16

16:                                               ; preds = %13
  call void @llvm.lifetime.end.p0(i64 4, ptr %4) #11
  br label %49

17:                                               ; preds = %13
  call void @llvm.lifetime.start.p0(i64 4, ptr %5) #11
  %18 = load i32, ptr %4, align 4, !tbaa !49
  store i32 %18, ptr %5, align 4, !tbaa !49
  %19 = load i32, ptr %5, align 4, !tbaa !49
  %20 = icmp sge i32 %19, 40
  br i1 %20, label %21, label %38

21:                                               ; preds = %17
  %22 = load i32, ptr %5, align 4, !tbaa !49
  %23 = icmp sge i32 %22, 54
  br i1 %23, label %24, label %31

24:                                               ; preds = %21
  %25 = load i32, ptr %5, align 4, !tbaa !49
  %26 = sub nsw i32 %25, 54
  store i32 %26, ptr %5, align 4, !tbaa !49
  %27 = load i32, ptr %5, align 4, !tbaa !49
  %28 = shl i32 %27, 2
  store i32 %28, ptr %5, align 4, !tbaa !49
  %29 = load i32, ptr %5, align 4, !tbaa !49
  %30 = add nsw i32 %29, 54
  store i32 %30, ptr %5, align 4, !tbaa !49
  br label %31

31:                                               ; preds = %24, %21
  %32 = load i32, ptr %5, align 4, !tbaa !49
  %33 = sub nsw i32 %32, 40
  store i32 %33, ptr %5, align 4, !tbaa !49
  %34 = load i32, ptr %5, align 4, !tbaa !49
  %35 = shl i32 %34, 2
  store i32 %35, ptr %5, align 4, !tbaa !49
  %36 = load i32, ptr %5, align 4, !tbaa !49
  %37 = add nsw i32 %36, 40
  store i32 %37, ptr %5, align 4, !tbaa !49
  br label %38

38:                                               ; preds = %31, %17
  %39 = load i32, ptr %5, align 4, !tbaa !49
  %40 = load ptr, ptr %3, align 8, !tbaa !29
  %41 = getelementptr inbounds nuw %struct.CFHDContext, ptr %40, i32 0, i32 3
  %42 = getelementptr inbounds [2 x [256 x i32]], ptr %41, i64 0, i64 0
  %43 = load i32, ptr %4, align 4, !tbaa !49
  %44 = sext i32 %43 to i64
  %45 = getelementptr inbounds [256 x i32], ptr %42, i64 0, i64 %44
  store i32 %39, ptr %45, align 4, !tbaa !49
  call void @llvm.lifetime.end.p0(i64 4, ptr %5) #11
  br label %46

46:                                               ; preds = %38
  %47 = load i32, ptr %4, align 4, !tbaa !49
  %48 = add nsw i32 %47, 1
  store i32 %48, ptr %4, align 4, !tbaa !49
  br label %13, !llvm.loop !53

49:                                               ; preds = %16
  call void @llvm.lifetime.start.p0(i64 4, ptr %6) #11
  store i32 0, ptr %6, align 4, !tbaa !49
  br label %50

50:                                               ; preds = %75, %49
  %51 = load i32, ptr %6, align 4, !tbaa !49
  %52 = icmp slt i32 %51, 256
  br i1 %52, label %54, label %53

53:                                               ; preds = %50
  call void @llvm.lifetime.end.p0(i64 4, ptr %6) #11
  br label %78

54:                                               ; preds = %50
  %55 = load i32, ptr %6, align 4, !tbaa !49
  %56 = sext i32 %55 to i64
  %57 = load i32, ptr %6, align 4, !tbaa !49
  %58 = sext i32 %57 to i64
  %59 = mul nsw i64 768, %58
  %60 = load i32, ptr %6, align 4, !tbaa !49
  %61 = sext i32 %60 to i64
  %62 = mul nsw i64 %59, %61
  %63 = load i32, ptr %6, align 4, !tbaa !49
  %64 = sext i32 %63 to i64
  %65 = mul nsw i64 %62, %64
  %66 = sdiv i64 %65, 16777216
  %67 = add nsw i64 %56, %66
  %68 = trunc i64 %67 to i32
  %69 = load ptr, ptr %3, align 8, !tbaa !29
  %70 = getelementptr inbounds nuw %struct.CFHDContext, ptr %69, i32 0, i32 3
  %71 = getelementptr inbounds [2 x [256 x i32]], ptr %70, i64 0, i64 1
  %72 = load i32, ptr %6, align 4, !tbaa !49
  %73 = sext i32 %72 to i64
  %74 = getelementptr inbounds [256 x i32], ptr %71, i64 0, i64 %73
  store i32 %68, ptr %74, align 4, !tbaa !49
  br label %75

75:                                               ; preds = %54
  %76 = load i32, ptr %6, align 4, !tbaa !49
  %77 = add nsw i32 %76, 1
  store i32 %77, ptr %6, align 4, !tbaa !49
  br label %50, !llvm.loop !54

78:                                               ; preds = %53
  %79 = load ptr, ptr %3, align 8, !tbaa !29
  %80 = call i32 @ff_cfhd_init_vlcs(ptr noundef %79)
  call void @llvm.lifetime.end.p0(i64 8, ptr %3) #11
  ret i32 %80
}