; Function Attrs: cold nounwind optsize uwtable
define internal i32 @cfhd_init(ptr noundef %0) #1 {
  %2 = getelementptr inbounds nuw i8, ptr %0, i64 32
  %3 = load ptr, ptr %2, align 8, !tbaa !4
  store ptr %0, ptr %3, align 8, !tbaa !52
  %4 = getelementptr inbounds nuw i8, ptr %3, i64 39968
  br label %6

.preheader:                                       ; preds = %14
  %5 = getelementptr inbounds nuw i8, ptr %3, i64 40992
  br label %18

6:                                                ; preds = %1, %14
  %indvars.iv = phi i64 [ 0, %1 ], [ %indvars.iv.next, %14 ]
  %indvars29 = trunc i64 %indvars.iv to i32
  %7 = icmp samesign ugt i64 %indvars.iv, 39
  br i1 %7, label %8, label %14

8:                                                ; preds = %6
  %9 = icmp samesign ugt i64 %indvars.iv, 53
  %10 = shl nuw nsw i32 %indvars29, 2
  %11 = add nsw i32 %10, -162
  %.1 = select i1 %9, i32 %11, i32 %indvars29
  %12 = shl nsw i32 %.1, 2
  %13 = add nsw i32 %12, -120
  br label %14

14:                                               ; preds = %8, %6
  %.025 = phi i32 [ %13, %8 ], [ %indvars29, %6 ]
  %15 = getelementptr inbounds nuw [256 x i32], ptr %4, i64 0, i64 %indvars.iv
  store i32 %.025, ptr %15, align 4, !tbaa !53
  %indvars.iv.next = add nuw nsw i64 %indvars.iv, 1
  %exitcond.not = icmp eq i64 %indvars.iv.next, 64
  br i1 %exitcond.not, label %.preheader, label %6, !llvm.loop !54

16:                                               ; preds = %18
  %17 = tail call i32 @ff_cfhd_init_vlcs(ptr noundef nonnull %3) #10
  ret i32 %17

18:                                               ; preds = %.preheader, %18
  %indvars.iv30 = phi i64 [ 0, %.preheader ], [ %indvars.iv.next31, %18 ]
  %19 = mul nuw nsw i64 %indvars.iv30, 768
  %20 = mul nuw nsw i64 %19, %indvars.iv30
  %21 = mul nuw nsw i64 %20, %indvars.iv30
  %22 = lshr i64 %21, 24
  %23 = trunc nuw nsw i64 %22 to i32
  %24 = trunc nuw nsw i64 %indvars.iv30 to i32
  %25 = add nuw nsw i32 %24, %23
  %26 = getelementptr inbounds nuw [256 x i32], ptr %5, i64 0, i64 %indvars.iv30
  store i32 %25, ptr %26, align 4, !tbaa !53
  %indvars.iv.next31 = add nuw nsw i64 %indvars.iv30, 1
  %exitcond33.not = icmp eq i64 %indvars.iv.next31, 256
  br i1 %exitcond33.not, label %16, label %18, !llvm.loop !55
}